; Function Attrs: mustprogress nounwind willreturn uwtable
define noundef ptr @_ZN10duckdb_hll9sdscpylenEPcPKcm(ptr noundef captures(address, ret: address, provenance) %0, ptr noundef readonly captures(none) %1, i64 noundef %2) local_unnamed_addr #11 {
  %4 = getelementptr inbounds i8, ptr %0, i64 -1
  %5 = load i8, ptr %4, align 1, !tbaa !20
  %6 = zext i8 %5 to i32
  %7 = and i32 %6, 7
  switch i32 %7, label %_ZN10duckdb_hllL8sdsallocEPc.exit [
    i32 0, label %8
    i32 1, label %11
    i32 2, label %15
    i32 3, label %19
    i32 4, label %23
  ]

8:                                                ; preds = %3
  %9 = lshr i32 %6, 3
  %10 = zext nneg i32 %9 to i64
  br label %_ZN10duckdb_hllL8sdsallocEPc.exit

11:                                               ; preds = %3
  %12 = getelementptr inbounds i8, ptr %0, i64 -3
  %13 = load i8, ptr %12, align 1, !tbaa !7
  %14 = zext i8 %13 to i64
  br label %_ZN10duckdb_hllL8sdsallocEPc.exit

15:                                               ; preds = %3
  %16 = getelementptr inbounds i8, ptr %0, i64 -4
  %17 = load i16, ptr %16, align 1, !tbaa !11
  %18 = zext i16 %17 to i64
  br label %_ZN10duckdb_hllL8sdsallocEPc.exit

19:                                               ; preds = %3
  %20 = getelementptr inbounds i8, ptr %0, i64 -6
  %21 = load i32, ptr %20, align 1, !tbaa !15
  %22 = zext i32 %21 to i64
  br label %_ZN10duckdb_hllL8sdsallocEPc.exit

23:                                               ; preds = %3
  %24 = getelementptr inbounds i8, ptr %0, i64 -10
  %25 = load i64, ptr %24, align 1, !tbaa !19
  br label %_ZN10duckdb_hllL8sdsallocEPc.exit

_ZN10duckdb_hllL8sdsallocEPc.exit:                ; preds = %3, %8, %11, %15, %19, %23
  %.0.i = phi i64 [ %25, %23 ], [ %22, %19 ], [ %18, %15 ], [ %14, %11 ], [ %10, %8 ], [ 0, %3 ]
  %26 = icmp ult i64 %.0.i, %2
  br i1 %26, label %27, label %49

27:                                               ; preds = %_ZN10duckdb_hllL8sdsallocEPc.exit
  switch i32 %7, label %_ZN10duckdb_hllL6sdslenEPc.exit [
    i32 0, label %28
    i32 1, label %31
    i32 2, label %35
    i32 3, label %39
    i32 4, label %43
  ]

28:                                               ; preds = %27
  %29 = lshr i32 %6, 3
  %30 = zext nneg i32 %29 to i64
  br label %_ZN10duckdb_hllL6sdslenEPc.exit

31:                                               ; preds = %27
  %32 = getelementptr inbounds i8, ptr %0, i64 -4
  %33 = load i8, ptr %32, align 1, !tbaa !3
  %34 = zext i8 %33 to i64
  br label %_ZN10duckdb_hllL6sdslenEPc.exit

35:                                               ; preds = %27
  %36 = getelementptr inbounds i8, ptr %0, i64 -6
  %37 = load i16, ptr %36, align 1, !tbaa !8
  %38 = zext i16 %37 to i64
  br label %_ZN10duckdb_hllL6sdslenEPc.exit

39:                                               ; preds = %27
  %40 = getelementptr inbounds i8, ptr %0, i64 -10
  %41 = load i32, ptr %40, align 1, !tbaa !12
  %42 = zext i32 %41 to i64
  br label %_ZN10duckdb_hllL6sdslenEPc.exit

43:                                               ; preds = %27
  %44 = getelementptr inbounds i8, ptr %0, i64 -18
  %45 = load i64, ptr %44, align 1, !tbaa !16
  br label %_ZN10duckdb_hllL6sdslenEPc.exit

_ZN10duckdb_hllL6sdslenEPc.exit:                  ; preds = %27, %28, %31, %35, %39, %43
  %.0.i17 = phi i64 [ %45, %43 ], [ %42, %39 ], [ %38, %35 ], [ %34, %31 ], [ %30, %28 ], [ 0, %27 ]
  %46 = sub i64 %2, %.0.i17
  %47 = tail call noundef ptr @_ZN10duckdb_hll14sdsMakeRoomForEPcm(ptr noundef nonnull %0, i64 noundef %46)
  %48 = icmp eq ptr %47, null
  br i1 %48, label %_ZN10duckdb_hllL9sdssetlenEPcm.exit, label %_ZN10duckdb_hllL6sdslenEPc.exit._crit_edge

_ZN10duckdb_hllL6sdslenEPc.exit._crit_edge:       ; preds = %_ZN10duckdb_hllL6sdslenEPc.exit
  %.phi.trans.insert = getelementptr inbounds i8, ptr %47, i64 -1
  %.pre = load i8, ptr %.phi.trans.insert, align 1, !tbaa !20
  br label %49

49:                                               ; preds = %_ZN10duckdb_hllL6sdslenEPc.exit._crit_edge, %_ZN10duckdb_hllL8sdsallocEPc.exit
  %50 = phi i8 [ %.pre, %_ZN10duckdb_hllL6sdslenEPc.exit._crit_edge ], [ %5, %_ZN10duckdb_hllL8sdsallocEPc.exit ]
  %.014 = phi ptr [ %47, %_ZN10duckdb_hllL6sdslenEPc.exit._crit_edge ], [ %0, %_ZN10duckdb_hllL8sdsallocEPc.exit ]
  tail call void @llvm.memcpy.p0.p0.i64(ptr nonnull align 1 %.014, ptr align 1 %1, i64 %2, i1 false)
  %51 = getelementptr inbounds nuw i8, ptr %.014, i64 %2
  store i8 0, ptr %51, align 1, !tbaa !20
  %52 = and i8 %50, 7
  switch i8 %52, label %_ZN10duckdb_hllL9sdssetlenEPcm.exit [
    i8 0, label %53
    i8 1, label %56
    i8 2, label %59
    i8 3, label %62
    i8 4, label %65
  ]

53:                                               ; preds = %49
  %54 = getelementptr inbounds i8, ptr %.014, i64 -1
  %.tr.i = trunc i64 %2 to i8
  %55 = shl i8 %.tr.i, 3
  store i8 %55, ptr %54, align 1, !tbaa !20
  br label %_ZN10duckdb_hllL9sdssetlenEPcm.exit

56:                                               ; preds = %49
  %57 = trunc i64 %2 to i8
  %58 = getelementptr inbounds i8, ptr %.014, i64 -4
  store i8 %57, ptr %58, align 1, !tbaa !3
  br label %_ZN10duckdb_hllL9sdssetlenEPcm.exit

59:                                               ; preds = %49
  %60 = trunc i64 %2 to i16
  %61 = getelementptr inbounds i8, ptr %.014, i64 -6
  store i16 %60, ptr %61, align 1, !tbaa !8
  br label %_ZN10duckdb_hllL9sdssetlenEPcm.exit

62:                                               ; preds = %49
  %63 = trunc i64 %2 to i32
  %64 = getelementptr inbounds i8, ptr %.014, i64 -10
  store i32 %63, ptr %64, align 1, !tbaa !12
  br label %_ZN10duckdb_hllL9sdssetlenEPcm.exit

65:                                               ; preds = %49
  %66 = getelementptr inbounds i8, ptr %.014, i64 -18
  store i64 %2, ptr %66, align 1, !tbaa !16
  br label %_ZN10duckdb_hllL9sdssetlenEPcm.exit

_ZN10duckdb_hllL9sdssetlenEPcm.exit:              ; preds = %65, %62, %59, %56, %53, %49, %_ZN10duckdb_hllL6sdslenEPc.exit
  %.0 = phi ptr [ null, %_ZN10duckdb_hllL6sdslenEPc.exit ], [ %.014, %49 ], [ %.014, %53 ], [ %.014, %56 ], [ %.014, %59 ], [ %.014, %62 ], [ %.014, %65 ]
  ret ptr %.0
}